; Function Attrs: nounwind uwtable
define ptr @DHparams_dup(ptr noundef %0) local_unnamed_addr #0 {
  %2 = tail call ptr @DH_new() #5
  %3 = icmp eq ptr %2, null
  br i1 %3, label %19, label %4

4:                                                ; preds = %1
  %5 = getelementptr inbounds nuw i8, ptr %0, i64 16
  %6 = load ptr, ptr %5, align 8, !tbaa !3
  %7 = getelementptr inbounds nuw i8, ptr %2, i64 8
  %8 = getelementptr inbounds nuw i8, ptr %0, i64 8
  %9 = tail call i32 @ossl_ffc_params_copy(ptr noundef nonnull %7, ptr noundef nonnull %8) #5
  %.not.i = icmp eq i32 %9, 0
  br i1 %.not.i, label %18, label %10

10:                                               ; preds = %4
  %.not = icmp eq ptr %6, null
  br i1 %.not, label %11, label %int_dh_param_copy.exit

11:                                               ; preds = %10
  %12 = getelementptr inbounds nuw i8, ptr %0, i64 104
  %13 = load i32, ptr %12, align 8, !tbaa !20
  %14 = getelementptr inbounds nuw i8, ptr %2, i64 104
  store i32 %13, ptr %14, align 8, !tbaa !20
  br label %int_dh_param_copy.exit

int_dh_param_copy.exit:                           ; preds = %10, %11
  %15 = getelementptr inbounds nuw i8, ptr %2, i64 200
  %16 = load i64, ptr %15, align 8, !tbaa !21
  %17 = add i64 %16, 1
  store i64 %17, ptr %15, align 8, !tbaa !21
  br label %19

18:                                               ; preds = %4
  tail call void @DH_free(ptr noundef nonnull %2) #5
  br label %19

19:                                               ; preds = %int_dh_param_copy.exit, %1, %18
  %.0 = phi ptr [ null, %18 ], [ null, %1 ], [ %2, %int_dh_param_copy.exit ]
  ret ptr %.0
}